; Function Attrs: mustprogress nounwind uwtable
define dso_local noundef zeroext i1 @_ZN5clang14ASTMergeAction21BeginSourceFileActionERNS_16CompilerInstanceE(ptr noundef nonnull align 8 dereferenceable(136) %0, ptr noundef nonnull align 8 dereferenceable(352) %1) unnamed_addr #0 align 2 {
  %3 = alloca %"class.std::unique_ptr.2", align 8
  %4 = getelementptr inbounds nuw i8, ptr %0, i64 104
  %5 = load ptr, ptr %4, align 8
  %6 = getelementptr inbounds nuw i8, ptr %0, i64 8
  tail call void @llvm.experimental.noalias.scope.decl(metadata !4)
  %7 = getelementptr inbounds nuw i8, ptr %0, i64 88
  %8 = load i64, ptr %7, align 8, !noalias !4
  store i64 %8, ptr %3, align 8, !alias.scope !4
  store ptr null, ptr %7, align 8, !noalias !4
  call void @_ZN5clang14FrontendAction15setCurrentInputERKNS_17FrontendInputFileESt10unique_ptrINS_7ASTUnitESt14default_deleteIS5_EE(ptr noundef nonnull align 8 dereferenceable(104) %5, ptr noundef nonnull align 8 dereferenceable(77) %6, ptr noundef nonnull %3) #14
  %9 = load ptr, ptr %3, align 8
  %.not.i = icmp eq ptr %9, null
  br i1 %.not.i, label %_ZNSt10unique_ptrIN5clang7ASTUnitESt14default_deleteIS1_EED2Ev.exit, label %_ZNKSt14default_deleteIN5clang7ASTUnitEEclEPS1_.exit.i

_ZNKSt14default_deleteIN5clang7ASTUnitEEclEPS1_.exit.i: ; preds = %2
  call void @_ZN5clang7ASTUnitD1Ev(ptr noundef nonnull align 8 dereferenceable(2056) %9) #14
  call void @_ZdlPvm(ptr noundef nonnull %9, i64 noundef 2056) #15
  br label %_ZNSt10unique_ptrIN5clang7ASTUnitESt14default_deleteIS1_EED2Ev.exit

_ZNSt10unique_ptrIN5clang7ASTUnitESt14default_deleteIS1_EED2Ev.exit: ; preds = %2, %_ZNKSt14default_deleteIN5clang7ASTUnitEEclEPS1_.exit.i
  store ptr null, ptr %3, align 8
  %10 = load ptr, ptr %4, align 8
  %11 = getelementptr inbounds nuw i8, ptr %10, i64 96
  store ptr %1, ptr %11, align 8
  %12 = load ptr, ptr %4, align 8
  %13 = load ptr, ptr %12, align 8
  %14 = getelementptr inbounds nuw i8, ptr %13, i64 24
  %15 = load ptr, ptr %14, align 8
  %16 = call noundef zeroext i1 %15(ptr noundef nonnull align 8 dereferenceable(104) %12, ptr noundef nonnull align 8 dereferenceable(352) %1) #14
  ret i1 %16
}